target datalayout = "e-m:e-p270:32:32-p271:32:32-p272:64:64-i64:64-i128:128-f80:128-n8:16:32:64-S128"
target triple = "x86_64-unknown-linux-gnu"

%struct.BlockDriverState = type { i32, i8, i8, i8, i8, i8, ptr, ptr, ptr, %struct.anon, i8, [4096 x i8], [4096 x i8], [4096 x i8], [16 x i8], ptr, [4096 x i8], %struct.BlockLimits, i32, i32, i32, i32, [32 x i8], %union.anon, %union.anon.0, %union.anon.1, i32, [16 x %struct.anon.2], ptr, %struct.anon.3, ptr, ptr, %struct.anon.4, ptr, ptr, i32, ptr, i64, i64, %struct.QemuMutex, %struct.anon.5, %struct.Stat64, i32, i32, i32, i32, i32, i32, %struct.QemuMutex, %struct.anon.6, %struct.CoQueue, i8, i32, i8, %struct.CoMutex, ptr, ptr }
%struct.anon = type { ptr }
%struct.BlockLimits = type { i32, i64, i32, i64, i32, i32, i32, i64, i32, i64, i64, i32, i8, i32, i32, i32, i32, i32, i32, i32 }
%union.anon = type { %struct.QTailQLink }
%struct.QTailQLink = type { ptr, ptr }
%union.anon.0 = type { %struct.QTailQLink }
%union.anon.1 = type { %struct.QTailQLink }
%struct.anon.2 = type { ptr }
%struct.anon.3 = type { ptr }
%struct.anon.4 = type { ptr }
%struct.anon.5 = type { ptr }
%struct.Stat64 = type { i64 }
%struct.QemuMutex = type { %union.pthread_mutex_t, i8 }
%union.pthread_mutex_t = type { %struct.__pthread_mutex_s }
%struct.__pthread_mutex_s = type { i32, i32, i32, i32, i32, i16, i16, %struct.__pthread_internal_list }
%struct.__pthread_internal_list = type { ptr, ptr }
%struct.anon.6 = type { ptr }
%struct.CoQueue = type { %struct.anon.7 }
%struct.anon.7 = type { ptr, ptr }
%struct.CoMutex = type { i32, ptr, %struct.anon.8, %struct.anon.8, i32, i32, ptr }
%struct.anon.8 = type { ptr }
%struct.BDRVQcow2State = type { i32, i32, i32, i32, i32, i32, i32, i32, i32, i32, i32, i32, i32, i32, i64, i64, ptr, ptr, ptr, ptr, i32, %struct.anon.9, ptr, i64, i32, i32, i64, i64, %struct.CoMutex, %struct.Qcow2CryptoHeaderExtension, ptr, ptr, i8, i32, i64, i32, i32, ptr, i32, i64, i64, i32, i32, i8, i32, i32, i64, ptr, ptr, [5 x i8], i8, i32, i8, i64, i64, i64, i64, ptr, %struct.anon.10, %union.anon.11, i8, ptr, ptr, ptr, %struct.CoQueue, i32, ptr, i8, i8, i32 }
%struct.anon.9 = type { ptr }
%struct.Qcow2CryptoHeaderExtension = type { i64, i64 }
%struct.anon.10 = type { ptr }
%union.anon.11 = type { %struct.QTailQLink }
%struct.timeval = type { i64, i64 }

@.str.2 = private unnamed_addr constant [30 x i8] c"../qemu/block/qcow2-cluster.c\00", align 1
@trace_events_enabled_count = external global i32, align 4
@message_with_timestamp = external global i8, align 1
@qemu_loglevel = external global i32, align 4
@.str.76 = private unnamed_addr constant [80 x i8] c"*host_offset == INV_OFFSET || *host_offset == start_of_cluster(s, guest_offset)\00", align 1
@__PRETTY_FUNCTION__.do_alloc_cluster_offset = private unnamed_addr constant [82 x i8] c"int do_alloc_cluster_offset(BlockDriverState *, uint64_t, uint64_t *, uint64_t *)\00", align 1
@_TRACE_QCOW2_DO_ALLOC_CLUSTERS_OFFSET_DSTATE = external global i16, align 2
@.str.77 = private unnamed_addr constant [103 x i8] c"%d@%zu.%06zu:qcow2_do_alloc_clusters_offset co %p guest_offset 0x%lx host_offset 0x%lx nb_clusters %d\0A\00", align 1
@.str.78 = private unnamed_addr constant [90 x i8] c"qcow2_do_alloc_clusters_offset co %p guest_offset 0x%lx host_offset 0x%lx nb_clusters %d\0A\00", align 1
@_TRACE_QCOW2_CLUSTER_ALLOC_PHYS_DSTATE = external global i16, align 2
@.str.79 = private unnamed_addr constant [45 x i8] c"%d@%zu.%06zu:qcow2_cluster_alloc_phys co %p\0A\00", align 1
@.str.80 = private unnamed_addr constant [32 x i8] c"qcow2_cluster_alloc_phys co %p\0A\00", align 1

; Function Attrs: nounwind sspstrong uwtable
define internal zeroext i1 @qemu_loglevel_mask(i32 noundef %mask) #0 {
entry:
  %mask.addr = alloca i32, align 4
  store i32 %mask, ptr %mask.addr, align 4
  %0 = load i32, ptr @qemu_loglevel, align 4
  %1 = load i32, ptr %mask.addr, align 4
  %and = and i32 %0, %1
  %cmp = icmp ne i32 %and, 0
  ret i1 %cmp
}

; Function Attrs: nounwind sspstrong uwtable
define internal void @_nocheck__trace_qcow2_cluster_alloc_phys(ptr noundef %co) #0 {
entry:
  %co.addr = alloca ptr, align 8
  %_now = alloca %struct.timeval, align 8
  store ptr %co, ptr %co.addr, align 8
  %0 = load i32, ptr @trace_events_enabled_count, align 4
  %tobool = icmp ne i32 %0, 0
  %lnot = xor i1 %tobool, true
  %lnot1 = xor i1 %lnot, true
  %lnot.ext = zext i1 %lnot1 to i32
  %conv = sext i32 %lnot.ext to i64
  %tobool2 = icmp ne i64 %conv, 0
  br i1 %tobool2, label %land.lhs.true, label %if.end11

land.lhs.true:                                    ; preds = %entry
  %1 = load i16, ptr @_TRACE_QCOW2_CLUSTER_ALLOC_PHYS_DSTATE, align 2
  %conv3 = zext i16 %1 to i32
  %tobool4 = icmp ne i32 %conv3, 0
  br i1 %tobool4, label %land.lhs.true5, label %if.end11

land.lhs.true5:                                   ; preds = %land.lhs.true
  %call = call zeroext i1 @qemu_loglevel_mask(i32 noundef 32768)
  br i1 %call, label %if.then, label %if.end11

if.then:                                          ; preds = %land.lhs.true5
  %2 = load i8, ptr @message_with_timestamp, align 1
  %tobool7 = trunc i8 %2 to i1
  br i1 %tobool7, label %if.then8, label %if.else

if.then8:                                         ; preds = %if.then
  %call9 = call i32 @gettimeofday(ptr noundef %_now, ptr noundef null) #14
  %call10 = call i32 @qemu_get_thread_id()
  %tv_sec = getelementptr inbounds %struct.timeval, ptr %_now, i32 0, i32 0
  %3 = load i64, ptr %tv_sec, align 8
  %tv_usec = getelementptr inbounds %struct.timeval, ptr %_now, i32 0, i32 1
  %4 = load i64, ptr %tv_usec, align 8
  %5 = load ptr, ptr %co.addr, align 8
  call void (ptr, ...) @qemu_log(ptr noundef @.str.79, i32 noundef %call10, i64 noundef %3, i64 noundef %4, ptr noundef %5)
  br label %if.end

if.else:                                          ; preds = %if.then
  %6 = load ptr, ptr %co.addr, align 8
  call void (ptr, ...) @qemu_log(ptr noundef @.str.80, ptr noundef %6)
  br label %if.end

if.end:                                           ; preds = %if.else, %if.then8
  br label %if.end11

if.end11:                                         ; preds = %if.end, %land.lhs.true5, %land.lhs.true, %entry
  ret void
}

; Function Attrs: nounwind sspstrong uwtable
define internal void @_nocheck__trace_qcow2_do_alloc_clusters_offset(ptr noundef %co, i64 noundef %guest_offset, i64 noundef %host_offset, i32 noundef %nb_clusters) #0 {
entry:
  %co.addr = alloca ptr, align 8
  %guest_offset.addr = alloca i64, align 8
  %host_offset.addr = alloca i64, align 8
  %nb_clusters.addr = alloca i32, align 4
  %_now = alloca %struct.timeval, align 8
  store ptr %co, ptr %co.addr, align 8
  store i64 %guest_offset, ptr %guest_offset.addr, align 8
  store i64 %host_offset, ptr %host_offset.addr, align 8
  store i32 %nb_clusters, ptr %nb_clusters.addr, align 4
  %0 = load i32, ptr @trace_events_enabled_count, align 4
  %tobool = icmp ne i32 %0, 0
  %lnot = xor i1 %tobool, true
  %lnot1 = xor i1 %lnot, true
  %lnot.ext = zext i1 %lnot1 to i32
  %conv = sext i32 %lnot.ext to i64
  %tobool2 = icmp ne i64 %conv, 0
  br i1 %tobool2, label %land.lhs.true, label %if.end11

land.lhs.true:                                    ; preds = %entry
  %1 = load i16, ptr @_TRACE_QCOW2_DO_ALLOC_CLUSTERS_OFFSET_DSTATE, align 2
  %conv3 = zext i16 %1 to i32
  %tobool4 = icmp ne i32 %conv3, 0
  br i1 %tobool4, label %land.lhs.true5, label %if.end11

land.lhs.true5:                                   ; preds = %land.lhs.true
  %call = call zeroext i1 @qemu_loglevel_mask(i32 noundef 32768)
  br i1 %call, label %if.then, label %if.end11

if.then:                                          ; preds = %land.lhs.true5
  %2 = load i8, ptr @message_with_timestamp, align 1
  %tobool7 = trunc i8 %2 to i1
  br i1 %tobool7, label %if.then8, label %if.else

if.then8:                                         ; preds = %if.then
  %call9 = call i32 @gettimeofday(ptr noundef %_now, ptr noundef null) #14
  %call10 = call i32 @qemu_get_thread_id()
  %tv_sec = getelementptr inbounds %struct.timeval, ptr %_now, i32 0, i32 0
  %3 = load i64, ptr %tv_sec, align 8
  %tv_usec = getelementptr inbounds %struct.timeval, ptr %_now, i32 0, i32 1
  %4 = load i64, ptr %tv_usec, align 8
  %5 = load ptr, ptr %co.addr, align 8
  %6 = load i64, ptr %guest_offset.addr, align 8
  %7 = load i64, ptr %host_offset.addr, align 8
  %8 = load i32, ptr %nb_clusters.addr, align 4
  call void (ptr, ...) @qemu_log(ptr noundef @.str.77, i32 noundef %call10, i64 noundef %3, i64 noundef %4, ptr noundef %5, i64 noundef %6, i64 noundef %7, i32 noundef %8)
  br label %if.end

if.else:                                          ; preds = %if.then
  %9 = load ptr, ptr %co.addr, align 8
  %10 = load i64, ptr %guest_offset.addr, align 8
  %11 = load i64, ptr %host_offset.addr, align 8
  %12 = load i32, ptr %nb_clusters.addr, align 4
  call void (ptr, ...) @qemu_log(ptr noundef @.str.78, ptr noundef %9, i64 noundef %10, i64 noundef %11, i32 noundef %12)
  br label %if.end

if.end:                                           ; preds = %if.else, %if.then8
  br label %if.end11

if.end11:                                         ; preds = %if.end, %land.lhs.true5, %land.lhs.true, %entry
  ret void
}

; Function Attrs: nounwind sspstrong uwtable
define internal void @trace_qcow2_cluster_alloc_phys(ptr noundef %co) #0 {
entry:
  %co.addr = alloca ptr, align 8
  store ptr %co, ptr %co.addr, align 8
  %0 = load ptr, ptr %co.addr, align 8
  call void @_nocheck__trace_qcow2_cluster_alloc_phys(ptr noundef %0)
  ret void
}

; Function Attrs: nounwind sspstrong uwtable
define internal i64 @start_of_cluster(ptr noundef %s, i64 noundef %offset) #0 {
entry:
  %s.addr = alloca ptr, align 8
  %offset.addr = alloca i64, align 8
  store ptr %s, ptr %s.addr, align 8
  store i64 %offset, ptr %offset.addr, align 8
  %0 = load i64, ptr %offset.addr, align 8
  %1 = load ptr, ptr %s.addr, align 8
  %cluster_size = getelementptr inbounds %struct.BDRVQcow2State, ptr %1, i32 0, i32 1
  %2 = load i32, ptr %cluster_size, align 4
  %sub = sub i32 %2, 1
  %not = xor i32 %sub, -1
  %conv = sext i32 %not to i64
  %and = and i64 %0, %conv
  ret i64 %and
}

; Function Attrs: nounwind sspstrong uwtable
define internal zeroext i1 @has_data_file(ptr noundef %bs) #0 {
entry:
  %bs.addr = alloca ptr, align 8
  %s = alloca ptr, align 8
  store ptr %bs, ptr %bs.addr, align 8
  %0 = load ptr, ptr %bs.addr, align 8
  %opaque = getelementptr inbounds %struct.BlockDriverState, ptr %0, i32 0, i32 7
  %1 = load ptr, ptr %opaque, align 8
  store ptr %1, ptr %s, align 8
  %2 = load ptr, ptr %s, align 8
  %data_file = getelementptr inbounds %struct.BDRVQcow2State, ptr %2, i32 0, i32 66
  %3 = load ptr, ptr %data_file, align 8
  %4 = load ptr, ptr %bs.addr, align 8
  %file = getelementptr inbounds %struct.BlockDriverState, ptr %4, i32 0, i32 31
  %5 = load ptr, ptr %file, align 8
  %cmp = icmp ne ptr %3, %5
  ret i1 %cmp
}

; Function Attrs: nounwind sspstrong uwtable
define internal void @trace_qcow2_do_alloc_clusters_offset(ptr noundef %co, i64 noundef %guest_offset, i64 noundef %host_offset, i32 noundef %nb_clusters) #0 {
entry:
  %co.addr = alloca ptr, align 8
  %guest_offset.addr = alloca i64, align 8
  %host_offset.addr = alloca i64, align 8
  %nb_clusters.addr = alloca i32, align 4
  store ptr %co, ptr %co.addr, align 8
  store i64 %guest_offset, ptr %guest_offset.addr, align 8
  store i64 %host_offset, ptr %host_offset.addr, align 8
  store i32 %nb_clusters, ptr %nb_clusters.addr, align 4
  %0 = load ptr, ptr %co.addr, align 8
  %1 = load i64, ptr %guest_offset.addr, align 8
  %2 = load i64, ptr %host_offset.addr, align 8
  %3 = load i32, ptr %nb_clusters.addr, align 4
  call void @_nocheck__trace_qcow2_do_alloc_clusters_offset(ptr noundef %0, i64 noundef %1, i64 noundef %2, i32 noundef %3)
  ret void
}

; Function Attrs: nounwind sspstrong uwtable
define internal i32 @do_alloc_cluster_offset(ptr noundef %bs, i64 noundef %guest_offset, ptr noundef %host_offset, ptr noundef %nb_clusters) #0 {
entry:
  %retval = alloca i32, align 4
  %bs.addr = alloca ptr, align 8
  %guest_offset.addr = alloca i64, align 8
  %host_offset.addr = alloca ptr, align 8
  %nb_clusters.addr = alloca ptr, align 8
  %s = alloca ptr, align 8
  %cluster_offset = alloca i64, align 8
  %ret = alloca i64, align 8
  store ptr %bs, ptr %bs.addr, align 8
  store i64 %guest_offset, ptr %guest_offset.addr, align 8
  store ptr %host_offset, ptr %host_offset.addr, align 8
  store ptr %nb_clusters, ptr %nb_clusters.addr, align 8
  %0 = load ptr, ptr %bs.addr, align 8
  %opaque = getelementptr inbounds %struct.BlockDriverState, ptr %0, i32 0, i32 7
  %1 = load ptr, ptr %opaque, align 8
  store ptr %1, ptr %s, align 8
  %call = call ptr @qemu_coroutine_self()
  %2 = load i64, ptr %guest_offset.addr, align 8
  %3 = load ptr, ptr %host_offset.addr, align 8
  %4 = load i64, ptr %3, align 8
  %5 = load ptr, ptr %nb_clusters.addr, align 8
  %6 = load i64, ptr %5, align 8
  %conv = trunc i64 %6 to i32
  call void @trace_qcow2_do_alloc_clusters_offset(ptr noundef %call, i64 noundef %2, i64 noundef %4, i32 noundef %conv)
  %7 = load ptr, ptr %bs.addr, align 8
  %call1 = call zeroext i1 @has_data_file(ptr noundef %7)
  br i1 %call1, label %if.then, label %if.end8

if.then:                                          ; preds = %entry
  %8 = load ptr, ptr %host_offset.addr, align 8
  %9 = load i64, ptr %8, align 8
  %cmp = icmp eq i64 %9, -1
  br i1 %cmp, label %if.then6, label %lor.lhs.false

lor.lhs.false:                                    ; preds = %if.then
  %10 = load ptr, ptr %host_offset.addr, align 8
  %11 = load i64, ptr %10, align 8
  %12 = load ptr, ptr %s, align 8
  %13 = load i64, ptr %guest_offset.addr, align 8
  %call3 = call i64 @start_of_cluster(ptr noundef %12, i64 noundef %13)
  %cmp4 = icmp eq i64 %11, %call3
  br i1 %cmp4, label %if.then6, label %if.else

if.then6:                                         ; preds = %lor.lhs.false, %if.then
  br label %if.end

if.else:                                          ; preds = %lor.lhs.false
  call void @__assert_fail(ptr noundef @.str.76, ptr noundef @.str.2, i32 noundef 1615, ptr noundef @__PRETTY_FUNCTION__.do_alloc_cluster_offset) #12
  unreachable

if.end:                                           ; preds = %if.then6
  %14 = load ptr, ptr %s, align 8
  %15 = load i64, ptr %guest_offset.addr, align 8
  %call7 = call i64 @start_of_cluster(ptr noundef %14, i64 noundef %15)
  %16 = load ptr, ptr %host_offset.addr, align 8
  store i64 %call7, ptr %16, align 8
  store i32 0, ptr %retval, align 4
  br label %return

if.end8:                                          ; preds = %entry
  %call9 = call ptr @qemu_coroutine_self()
  call void @trace_qcow2_cluster_alloc_phys(ptr noundef %call9)
  %17 = load ptr, ptr %host_offset.addr, align 8
  %18 = load i64, ptr %17, align 8
  %cmp10 = icmp eq i64 %18, -1
  br i1 %cmp10, label %if.then12, label %if.else20

if.then12:                                        ; preds = %if.end8
  %19 = load ptr, ptr %bs.addr, align 8
  %20 = load ptr, ptr %nb_clusters.addr, align 8
  %21 = load i64, ptr %20, align 8
  %22 = load ptr, ptr %s, align 8
  %cluster_size = getelementptr inbounds %struct.BDRVQcow2State, ptr %22, i32 0, i32 1
  %23 = load i32, ptr %cluster_size, align 4
  %conv13 = sext i32 %23 to i64
  %mul = mul i64 %21, %conv13
  %call14 = call i64 @qcow2_alloc_clusters(ptr noundef %19, i64 noundef %mul)
  store i64 %call14, ptr %cluster_offset, align 8
  %24 = load i64, ptr %cluster_offset, align 8
  %cmp15 = icmp slt i64 %24, 0
  br i1 %cmp15, label %if.then17, label %if.end19

if.then17:                                        ; preds = %if.then12
  %25 = load i64, ptr %cluster_offset, align 8
  %conv18 = trunc i64 %25 to i32
  store i32 %conv18, ptr %retval, align 4
  br label %return

if.end19:                                         ; preds = %if.then12
  %26 = load i64, ptr %cluster_offset, align 8
  %27 = load ptr, ptr %host_offset.addr, align 8
  store i64 %26, ptr %27, align 8
  store i32 0, ptr %retval, align 4
  br label %return

if.else20:                                        ; preds = %if.end8
  %28 = load ptr, ptr %bs.addr, align 8
  %29 = load ptr, ptr %host_offset.addr, align 8
  %30 = load i64, ptr %29, align 8
  %31 = load ptr, ptr %nb_clusters.addr, align 8
  %32 = load i64, ptr %31, align 8
  %call21 = call i64 @qcow2_alloc_clusters_at(ptr noundef %28, i64 noundef %30, i64 noundef %32)
  store i64 %call21, ptr %ret, align 8
  %33 = load i64, ptr %ret, align 8
  %cmp22 = icmp slt i64 %33, 0
  br i1 %cmp22, label %if.then24, label %if.end26

if.then24:                                        ; preds = %if.else20
  %34 = load i64, ptr %ret, align 8
  %conv25 = trunc i64 %34 to i32
  store i32 %conv25, ptr %retval, align 4
  br label %return

if.end26:                                         ; preds = %if.else20
  %35 = load i64, ptr %ret, align 8
  %36 = load ptr, ptr %nb_clusters.addr, align 8
  store i64 %35, ptr %36, align 8
  store i32 0, ptr %retval, align 4
  br label %return

return:                                           ; preds = %if.end26, %if.then24, %if.end19, %if.then17, %if.end
  %37 = load i32, ptr %retval, align 4
  ret i32 %37
}