; Function Attrs: nounwind sspstrong uwtable
define internal i32 @do_alloc_cluster_offset(ptr noundef %bs, i64 noundef %guest_offset, ptr noundef captures(none) %host_offset, ptr noundef captures(none) %nb_clusters) #0 {
entry:
  %_now.i.i27 = alloca %struct.timeval, align 8
  %_now.i.i = alloca %struct.timeval, align 8
  %opaque = getelementptr inbounds nuw i8, ptr %bs, i64 24
  %0 = load ptr, ptr %opaque, align 8
  %call = tail call ptr @qemu_coroutine_self() #13
  %1 = load i64, ptr %host_offset, align 8
  %2 = load i64, ptr %nb_clusters, align 8
  %conv = trunc i64 %2 to i32
  call void @llvm.lifetime.start.p0(i64 16, ptr nonnull %_now.i.i)
  %3 = load i32, ptr @trace_events_enabled_count, align 4
  %tobool.i.i = icmp ne i32 %3, 0
  %4 = load i16, ptr @_TRACE_QCOW2_DO_ALLOC_CLUSTERS_OFFSET_DSTATE, align 2
  %tobool4.i.i = icmp ne i16 %4, 0
  %or.cond.i.i = select i1 %tobool.i.i, i1 %tobool4.i.i, i1 false
  br i1 %or.cond.i.i, label %land.lhs.true5.i.i, label %trace_qcow2_do_alloc_clusters_offset.exit

land.lhs.true5.i.i:                               ; preds = %entry
  %5 = load i32, ptr @qemu_loglevel, align 4
  %and.i.i.i = and i32 %5, 32768
  %cmp.i.not.i.i = icmp eq i32 %and.i.i.i, 0
  br i1 %cmp.i.not.i.i, label %trace_qcow2_do_alloc_clusters_offset.exit, label %if.then.i.i

if.then.i.i:                                      ; preds = %land.lhs.true5.i.i
  %6 = load i8, ptr @message_with_timestamp, align 1
  %tobool7.i.i = trunc i8 %6 to i1
  br i1 %tobool7.i.i, label %if.then8.i.i, label %if.else.i.i

if.then8.i.i:                                     ; preds = %if.then.i.i
  %call9.i.i = call i32 @gettimeofday(ptr noundef nonnull %_now.i.i, ptr noundef null) #13
  %call10.i.i = tail call i32 @qemu_get_thread_id() #13
  %7 = load i64, ptr %_now.i.i, align 8
  %tv_usec.i.i = getelementptr inbounds nuw i8, ptr %_now.i.i, i64 8
  %8 = load i64, ptr %tv_usec.i.i, align 8
  tail call void (ptr, ...) @qemu_log(ptr noundef nonnull @.str.77, i32 noundef %call10.i.i, i64 noundef %7, i64 noundef %8, ptr noundef %call, i64 noundef %guest_offset, i64 noundef %1, i32 noundef %conv) #13
  br label %trace_qcow2_do_alloc_clusters_offset.exit

if.else.i.i:                                      ; preds = %if.then.i.i
  tail call void (ptr, ...) @qemu_log(ptr noundef nonnull @.str.78, ptr noundef %call, i64 noundef %guest_offset, i64 noundef %1, i32 noundef %conv) #13
  br label %trace_qcow2_do_alloc_clusters_offset.exit

trace_qcow2_do_alloc_clusters_offset.exit:        ; preds = %entry, %land.lhs.true5.i.i, %if.then8.i.i, %if.else.i.i
  call void @llvm.lifetime.end.p0(i64 16, ptr nonnull %_now.i.i)
  %bs.val = load ptr, ptr %opaque, align 8
  %9 = getelementptr i8, ptr %bs, i64 16840
  %bs.val22 = load ptr, ptr %9, align 8
  %10 = getelementptr i8, ptr %bs.val, i64 480
  %bs.val.val = load ptr, ptr %10, align 8
  %cmp.i.not = icmp eq ptr %bs.val.val, %bs.val22
  br i1 %cmp.i.not, label %if.end8, label %if.then

if.then:                                          ; preds = %trace_qcow2_do_alloc_clusters_offset.exit
  %11 = load i64, ptr %host_offset, align 8
  %cmp = icmp eq i64 %11, -1
  %.phi.trans.insert = getelementptr i8, ptr %0, i64 4
  %.val.pre = load i32, ptr %.phi.trans.insert, align 4
  %.pre = sub i32 0, %.val.pre
  %.pre42 = sext i32 %.pre to i64
  %.pre43 = and i64 %guest_offset, %.pre42
  %cmp4 = icmp eq i64 %11, %.pre43
  %or.cond = select i1 %cmp, i1 true, i1 %cmp4
  br i1 %or.cond, label %if.end, label %if.else

if.else:                                          ; preds = %if.then
  tail call void @__assert_fail(ptr noundef nonnull @.str.76, ptr noundef nonnull @.str.2, i32 noundef 1615, ptr noundef nonnull @__PRETTY_FUNCTION__.do_alloc_cluster_offset) #15
  unreachable

if.end:                                           ; preds = %if.then
  store i64 %.pre43, ptr %host_offset, align 8
  br label %return

if.end8:                                          ; preds = %trace_qcow2_do_alloc_clusters_offset.exit
  %call9 = tail call ptr @qemu_coroutine_self() #13
  call void @llvm.lifetime.start.p0(i64 16, ptr nonnull %_now.i.i27)
  %12 = load i32, ptr @trace_events_enabled_count, align 4
  %tobool.i.i28 = icmp ne i32 %12, 0
  %13 = load i16, ptr @_TRACE_QCOW2_CLUSTER_ALLOC_PHYS_DSTATE, align 2
  %tobool4.i.i29 = icmp ne i16 %13, 0
  %or.cond.i.i30 = select i1 %tobool.i.i28, i1 %tobool4.i.i29, i1 false
  br i1 %or.cond.i.i30, label %land.lhs.true5.i.i31, label %trace_qcow2_cluster_alloc_phys.exit

land.lhs.true5.i.i31:                             ; preds = %if.end8
  %14 = load i32, ptr @qemu_loglevel, align 4
  %and.i.i.i32 = and i32 %14, 32768
  %cmp.i.not.i.i33 = icmp eq i32 %and.i.i.i32, 0
  br i1 %cmp.i.not.i.i33, label %trace_qcow2_cluster_alloc_phys.exit, label %if.then.i.i34

if.then.i.i34:                                    ; preds = %land.lhs.true5.i.i31
  %15 = load i8, ptr @message_with_timestamp, align 1
  %tobool7.i.i35 = trunc i8 %15 to i1
  br i1 %tobool7.i.i35, label %if.then8.i.i37, label %if.else.i.i36

if.then8.i.i37:                                   ; preds = %if.then.i.i34
  %call9.i.i38 = call i32 @gettimeofday(ptr noundef nonnull %_now.i.i27, ptr noundef null) #13
  %call10.i.i39 = tail call i32 @qemu_get_thread_id() #13
  %16 = load i64, ptr %_now.i.i27, align 8
  %tv_usec.i.i40 = getelementptr inbounds nuw i8, ptr %_now.i.i27, i64 8
  %17 = load i64, ptr %tv_usec.i.i40, align 8
  tail call void (ptr, ...) @qemu_log(ptr noundef nonnull @.str.79, i32 noundef %call10.i.i39, i64 noundef %16, i64 noundef %17, ptr noundef %call9) #13
  br label %trace_qcow2_cluster_alloc_phys.exit

if.else.i.i36:                                    ; preds = %if.then.i.i34
  tail call void (ptr, ...) @qemu_log(ptr noundef nonnull @.str.80, ptr noundef %call9) #13
  br label %trace_qcow2_cluster_alloc_phys.exit

trace_qcow2_cluster_alloc_phys.exit:              ; preds = %if.end8, %land.lhs.true5.i.i31, %if.then8.i.i37, %if.else.i.i36
  call void @llvm.lifetime.end.p0(i64 16, ptr nonnull %_now.i.i27)
  %18 = load i64, ptr %host_offset, align 8
  %cmp10 = icmp eq i64 %18, -1
  %19 = load i64, ptr %nb_clusters, align 8
  br i1 %cmp10, label %if.then12, label %if.else20

if.then12:                                        ; preds = %trace_qcow2_cluster_alloc_phys.exit
  %cluster_size = getelementptr inbounds nuw i8, ptr %0, i64 4
  %20 = load i32, ptr %cluster_size, align 4
  %conv13 = sext i32 %20 to i64
  %mul = mul i64 %19, %conv13
  %call14 = tail call i64 @qcow2_alloc_clusters(ptr noundef nonnull %bs, i64 noundef %mul) #13
  %cmp15 = icmp slt i64 %call14, 0
  br i1 %cmp15, label %if.then17, label %if.end19

if.then17:                                        ; preds = %if.then12
  %conv18 = trunc i64 %call14 to i32
  br label %return

if.end19:                                         ; preds = %if.then12
  store i64 %call14, ptr %host_offset, align 8
  br label %return

if.else20:                                        ; preds = %trace_qcow2_cluster_alloc_phys.exit
  %call21 = tail call i64 @qcow2_alloc_clusters_at(ptr noundef nonnull %bs, i64 noundef %18, i64 noundef %19) #13
  %cmp22 = icmp slt i64 %call21, 0
  br i1 %cmp22, label %if.then24, label %if.end26

if.then24:                                        ; preds = %if.else20
  %conv25 = trunc i64 %call21 to i32
  br label %return

if.end26:                                         ; preds = %if.else20
  store i64 %call21, ptr %nb_clusters, align 8
  br label %return

return:                                           ; preds = %if.end26, %if.then24, %if.end19, %if.then17, %if.end
  %retval.0 = phi i32 [ 0, %if.end ], [ %conv18, %if.then17 ], [ 0, %if.end19 ], [ %conv25, %if.then24 ], [ 0, %if.end26 ]
  ret i32 %retval.0
}